(lp1
(lp2
I165
aI14
aI517
aI165
aI425
aI66
aI215
aI343
aI380
aI341
aI515
aI452
aI246
aI72
aI265
aI198
aI345
aI429
aI487
aI213
aI186
aI67
aI320
aI521
aI320
aI521
aI186
aI67
aI66
aI252
aI136
aI465
aI3
aI155
aI204
aI439
aI112
aI236
aI216
aI186
aI292
aI186
aI216
aI448
aI372
aI184
aI186
aI405
aI410
aI230
aI363
aI145
aI126
aI313
aI439
aI465
aI247
aI241
aI30
aI305
aI237
aI424
aI15
aI439
aI125
aI102
aI40
aI405
aI186
aI8
aI96
aI186
aI157
aI304
aI154
aI40
aI186
aI502
aI284
aI237
aI312
aI148
aI115
aI444
aI351
aI360
aI267
aI202
aI80
aI515
aI27
aI369
aI198
aI166
aI397
aI435
aI0
aI404
aI186
aI295
aI360
aI91
aI264
aI385
aI26
aI517
aI72
aI57
aI0
aI21
aI233
aI432
aI201
aI17
aI287
aI21
aI4
aI368
aI458
aI439
aI516
aI184
aI511
aI472
aI360
aI65
aI148
aI365
aI468
aI398
aI247
aI251
aI308
aI431
aI289
aI465
aI457
aI376
aI79
aI50
aI160
aI501
aI497
aI324
aI257
aI459
aI361
aI209
aI317
aI335
aI72
aI434
aI88
aI362
aI254
aI148
aI373
aI64
aI272
aI72
aI57
aI330
aI214
aI465
aI256
aI250
aI449
aI320
aI157
aI161
aI279
aI205
aI40
aI222
aI5
aI344
aI105
aI250
aI234
aI128
aI88
aI16
aI148
aI114
aI234
aI383
aI148
aI132
aI33
aI69
aI148
aI388
aI283
aI119
aI427
aI72
aI497
aI165
aI98
aI108
aI45
aI401
aI83
aI229
aI384
aI484
aI366
aI412
aI271
aI382
aI308
aI394
aI14
aI58
aI273
aI209
aI158
aI325
aI118
aI460
aI139
aI514
aI230
aI456
aI354
aI98
aI236
aI308
aI512
aI397
aI188
aI468
aI187
aI457
aI72
aI197
aI44
aI254
aI148
aI197
aI187
aI457
aI72
aI101
aI382
aI53
aI439
aI262
aI496
aI74
aI308
aI438
aI488
aI390
aI226
aI274
aI226
aI342
aI94
aI80
aI227
aI286
aI33
aI194
aI186
aI216
aI345
aI346
aI115
aI127
aI270
aI214
aI277
aI270
aI86
aI270
aI402
aI174
aI66
aI234
aI186
aI209
aI76
aI504
aI263
aI347
aI212
aI186
aI293
aI72
aI433
aI186
aI92
aI66
aI244
aI125
aI250
aI302
aI513
aI375
aI39
aI127
aI270
aI347
aI76
aI389
aI18
aI15
aI291
aI442
aI87
aI300
aI315
aI457
aI38
aI496
aI386
aI183
aI147
aI393
aI419
aI155
aI306
aI391
aI223
aI250
aI279
aI270
aI180
aI76
aI258
aI490
aI19
aI184
aI239
aI7
aI1
aI72
aI322
aI72
aI131
aI72
aI16
aI69
aI338
aI334
aI377
aI72
aI509
aI116
aI247
aI62
aI379
aI248
aI520
aI72
aI162
aI500
aI177
aI23
aI402
aI206
aI60
aI439
aI125
aI121
aI77
aI217
aI404
aI451
aI371
aI186
aI439
aI112
aI439
aI112
aI348
aI186
aI10
aI186
aI295
aI72
aI405
aI404
aI405
aI9
aI482
aI399
aI40
aI171
aI186
aI66
aI225
aI176
aI383
aI408
aI495
aI109
aI88
aI26
aI318
aI475
aI43
aI154
aI79
aI323
aI163
aI155
aI80
aI304
aI462
aI366
aI255
aI193
aI304
aI462
aI63
aI194
aI6
aI462
aI115
aI356
aI179
aI56
aI261
aI474
aI447
aI444
aI78
aI360
aI95
aI172
aI220
aI367
aI33
aI72
aI481
aI494
aI40
aI112
aI439
aI125
aI518
aI252
aI464
aI337
aI56
aI216
aI112
aI260
aI333
aI76
aI112
aI72
aI125
aI125
aI499
aI99
aI437
aI100
aI446
aI169
aI387
aI181
aI137
aI467
aI125
aI299
aI359
aI268
aI471
aI439
aI125
aI492
aI85
aI415
aI266
aI112
aI52
aI50
aI143
aI216
aI175
aI114
aI184
aI260
aI97
aI454
aI453
aI125
aI125
aI125
aI260
aI130
aI260
aI281
aI31
aI73
aI260
aI477
aI42
aI423
aI336
aI66
aI146
aI112
aI125
aI327
aI439
aI279
aI333
aI307
aI72
aI329
aI153
aI209
aI316
aI469
aI85
aI79
aI331
aI463
aI430
aI422
aI478
aI234
aI457
aI231
aI154
aI175
aI389
aI15
aI244
aI393
aI218
aI320
aI327
aI170
aI333
aI307
aI450
aI189
aI282
aI409
aI482
aI164
aI305
aI72
aI189
aI13
aI210
aI402
aI433
aI81
aI515
aI41
aI473
aI457
aI97
aI190
aI349
aI330
aI1
aI72
aI216
aI144
aI403
aI328
aI133
aI72
aI1
aI414
aI209
aI212
aI64
aI75
aI503
aI110
aI380
aI117
aI103
aI309
aI276
aI433
aI283
aI433
aI216
aI358
aI321
aI28
aI132
aI223
aI72
aI461
aI155
aI178
aI247
aI22
aI80
aI84
aI142
aI489
aI308
aI237
aI155
aI72
aI138
aI84
aI174
aI182
aI37
aI40
aI505
aI109
aI74
aI168
aI50
aI455
aI3
aI383
aI495
aI211
aI505
aI364
aI407
aI439
aI200
aI406
aI51
aI465
aI357
aI84
aI413
aI296
aI392
aI82
aI84
aI164
aI317
aI109
aI49
aI380
aI112
aI72
aI439
aI125
aI209
aI433
aI119
aI285
aI357
aI109
aI164
aI339
aI74
aI209
aI382
aI480
aI125
aI164
aI372
aI80
aI249
aI249
aI269
aI344
aI357
aI332
aI109
aI297
aI370
aI466
aI111
aI283
aI366
aI370
aI8
aI278
aI507
aI421
aI106
aI84
aI379
aI232
aI239
aI111
aI382
aI480
aI235
aI283
aI18
aI152
aI238
aI476
aI242
aI326
aI68
aI195
aI85
aI74
aI382
aI159
aI59
aI320
aI240
aI125
aI355
aI482
aI55
aI433
aI381
aI192
aI313
aI120
aI164
aI36
aI445
aI135
aI323
aI275
aI29
aI123
aI11
aI12
aI303
aI314
aI228
aI48
aI176
aI149
aI298
aI33
aI382
aI61
aI460
aI255
aI326
aI417
aI311
aI330
aI433
aI498
aI395
aI510
aI20
aI512
aI89
aI372
aI134
aI85
aI156
aI491
aI486
aI310
aI479
aI151
aI294
aI129
aI191
aI426
aI372
aI258
aI476
aI407
aI476
aI84
aI245
aI25
aI396
aI156
aI280
aI164
aI441
aI98
aI493
aI436
aI186
aI72
aI443
aI403
aI70
aI34
aI366
aI243
aI344
aI516
aI290
aI25
aI47
aI90
aI107
aI85
aI224
aI219
aI70
aI40
aI221
aI24
aI519
aI196
aI319
aI470
aI154
aI54
aI132
aI84
aI185
aI428
aI482
aI84
aI158
aI199
aI425
aI32
aI288
aI418
aI146
aI259
aI93
aI82
aI288
aI378
aI416
aI360
aI515
aI420
aI216
aI112
aI207
aI352
aI70
aI203
aI122
aI440
aI340
aI506
aI350
aI409
aI516
aI103
aI483
aI72
aI243
aI113
aI253
aI2
aI140
aI495
aI289
aI261
aI401
aI170
aI25
aI383
aI135
aI124
aI167
aI104
aI84
aI433
aI208
aI476
aI400
aI35
aI158
aI301
aI350
aI141
aI411
aI71
aI374
aI150
aI433
aI255
aI353
aI186
aI508
aI129
aI40
aI312
aI46
aI90
aI173
aI120
aI372
aI142
aI485
aI68
aI72
aI258
aa(lp3
I584
aI79
aI780
aI754
aI611
aI761
aI584
aI74
aI534
aI165
aI676
aI216
aI165
aI741
aI785
aI527
aI367
aI552
aI566
aI564
aI704
aI733
aI661
aI770
aI619
aI501
aI637
aI580
aI561
aI58
aI600
aI600
aI693
aI638
aI79
aI556
aI600
aI591
aI622
aI198
aI637
aI638
aI534
aI788
aI693
aI777
aI246
aI389
aI341
aI92
aI237
aI372
aI258
aI600
aI98
aI138
aI655
aI619
aI742
aI528
aI595
aI198
aI443
aI637
aI600
aI776
aI715
aI617
aI791
aI676
aI726
aI126
aI548
aI566
aI584
aI589
aI781
aI780
aI754
aI46
aI657
aI58
aI600
aI46
aI591
aI622
aI698
aI627
aI638
aI534
aI640
aI170
aI693
aI780
aI79
aI629
aI772
aI572
aI754
aI534
aI443
aI688
aI600
aI109
aI664
aI549
aI685
aI584
aI357
aI433
aI290
aI650
aI589
aI734
aI769
aI443
aI637
aI367
aI529
aI786
aI615
aI637
aI524
aI693
aI777
aI610
aI626
aI780
aI720
aI372
aI372
aI531
aI554
aI605
aI750
aI562
aI600
aI769
aI655
aI693
aI372
aI780
aI109
aI693
aI584
aI244
aI657
aI640
aI320
aI638
aI534
aI433
aI79
aI516
aI754
aI109
aI664
aI549
aI685
aI781
aI693
aI600
aI685
aI583
aI777
aI589
aI781
aI248
aI780
aI121
aI692
aI576
aI558
aI549
aI685
aI336
aI693
aI357
aI152
aI768
aI754
aI746
aI588
aI643
aI548
aI685
aI549
aI560
aI758
aI82
aI614
aI654
aI645
aI548
aI631
aI665
aI653
aI693
aI584
aI702
aI722
aI79
aI164
aI372
aI25
aI225
aI693
aI780
aI407
aI589
aI439
aI757
aI77
aI690
aI720
aI693
aI719
aI93
aI488
aI495
aI685
aI645
aI560
aI58
aI440
aI587
aI433
aI779
aI646
aI623
aI79
aI534
aI600
aI688
aI103
aI495
aI623
aI693
aI584
aI433
aI534
aI205
aI372
aI686
aI648
aI285
aI685
aI79
aI693
aI780
aI372
aI748
aI426
aI534
aI641
aI25
aI584
aI589
aI68
aI606
aI769
aI610
aI367
aI613
aI559
aI620
aI682
aI589
aI611
aI524
aI566
aI693
aI777
aI610
aI626
aI780
aI720
aI372
aI372
aI531
aI554
aI605
aI750
aI562
aI109
aI164
aI693
aI600
aI693
aI777
aI604
aI780
aI109
aI79
aI646
aI623
aI781
aI693
aI600
aI121
aI752
aI583
aI619
aI589
aI584
aI172
aI780
aI121
aI752
aI58
aI623
aI693
aI751
aI589
aI623
aI699
aI172
aI58
aI341
aI577
aI93
aI660
aI790
aI631
aI659
aI535
aI735
aI548
aI623
aI560
aI421
aI695
aI570
aI532
aI676
aI631
aI670
aI755
aI749
aI730
aI645
aI666
aI693
aI777
aI372
aI79
aI747
aI667
aI127
aI623
aI568
aI79
aI764
aI693
aI780
aI638
aI495
aI533
aI634
aI389
aI242
aI589
aI718
aI677
aI681
aI690
aI720
aI569
aI765
aI607
aI639
aI584
aI723
aI693
aI593
aI557
aI90
aI709
aI778
aI780
aI693
aI777
aI714
aI709
aI372
aI709
aI372
aI693
aI780
aI693
aI584
aI98
aI600
aI98
aI389
aI709
aI693
aI534
aI25
aI372
aI709
aI777
aI589
aI619
aI671
aI635
aI209
aI780
aI109
aI709
aI684
aI610
aI367
aI567
aI717
aI783
aI727
aI740
aI566
aI713
aI767
aI590
aI777
aI610
aI626
aI780
aI720
aI372
aI372
aI531
aI554
aI605
aI750
aI562
aI164
aI693
aI600
aI693
aI523
aI777
aI780
aI109
aI709
aI781
aI693
aI600
aI709
aI583
aI584
aI589
aI781
aI769
aI611
aI624
aI248
aI585
aI652
aI732
aI708
aI703
aI739
aI589
aI248
aI780
aI743
aI644
aI543
aI691
aI659
aI602
aI634
aI485
aI592
aI615
aI745
aI309
aI616
aI485
aI522
aI780
aI693
aI584
aI709
aI693
aI709
aI367
aI676
aI684
aI693
aI780
aI537
aI112
aI709
aI164
aI722
aI636
aI170
aI714
aI676
aI79
aI426
aI764
aI693
aI676
aI684
aI709
aI706
aI701
aI544
aI209
aI433
aI656
aI780
aI714
aI656
aI693
aI584
aI693
aI600
aI244
aI372
aI656
aI780
aI618
aI584
aI600
aI98
aI389
aI656
aI759
aI433
aI640
aI112
aI709
aI693
aI720
aI760
aI534
aI584
aI489
aI534
aI696
aI589
aI641
aI372
aI336
aI157
aI357
aI640
aI600
aI372
aI544
aI711
aI722
aI546
aI218
aI528
aI769
aI734
aI637
aI671
aI550
aI753
aI599
aI594
aI597
aI566
aI578
aI589
aI719
aI637
aI538
aI693
aI777
aI610
aI626
aI780
aI720
aI372
aI372
aI531
aI554
aI605
aI750
aI562
aI164
aI693
aI600
aI693
aI584
aI109
aI656
aI781
aI693
aI600
aI656
aI583
aI589
aI781
aI769
aI719
aI248
aI780
aI720
aI743
aI581
aI644
aI710
aI582
aI543
aI58
aI602
aI485
aI631
aI77
aI647
aI731
aI592
aI615
aI663
aI762
aI539
aI216
aI598
aI687
aI541
aI549
aI632
aI571
aI555
aI615
aI622
aI526
aI573
aI584
aI589
aI693
aI656
aI693
aI656
aI693
aI777
aI649
aI634
aI537
aI112
aI656
aI693
aI297
aI656
aI372
aI525
aI677
aI780
aI780
aI693
aI98
aI525
aI216
aI525
aI684
aI662
aI693
aI372
aI525
aI165
aI618
aI593
aI600
aI98
aI389
aI525
aI672
aI693
aI98
aI389
aI656
aI98
aI389
aI525
aI534
aI25
aI584
aI589
aI769
aI785
aI540
aI712
aI610
aI499
aI689
aI566
aI737
aI609
aI578
aI612
aI634
aI673
aI773
aI542
aI575
aI549
aI565
aI613
aI547
aI724
aI658
aI628
aI787
aI683
aI563
aI728
aI584
aI787
aI729
aI675
aI774
aI574
aI699
aI146
aI589
aI719
aI785
aI693
aI777
aI610
aI626
aI780
aI720
aI372
aI372
aI531
aI554
aI605
aI750
aI562
aI109
aI164
aI693
aI600
aI693
aI584
aI780
aI109
aI525
aI781
aI693
aI600
aI525
aI583
aI584
aI589
aI781
aI172
aI720
aI743
aI644
aI77
aI532
aI731
aI356
aI58
aI602
aI485
aI421
aI615
aI736
aI633
aI601
aI592
aI77
aI539
aI679
aI782
aI669
aI784
aI779
aI705
aI697
aI642
aI428
aI225
aI651
aI587
aI694
aI693
aI584
aI367
aI58
aI525
aI693
aI525
aI780
aI618
aI751
aI112
aI525
aI164
aI90
aI648
aI98
aI258
aI158
aI372
aI209
aI693
aI780
aI589
aI718
aI690
aI720
aI533
aI674
aI209
aI677
aI711
aI579
aI608
aI681
aI700
aI775
aI545
aI402
aI721
aI367
aI153
aI98
aI596
aI775
aI563
aI402
aI686
aI738
aI593
aI693
aI534
aI600
aI688
aI90
aI553
aI775
aI536
aI584
aI570
aI608
aI402
aI729
aI357
aI678
aI744
aI718
aI780
aI693
aI98
aI648
aI525
aI693
aI630
aI676
aI775
aI536
aI563
aI404
aI625
aI534
aI600
aI777
aI589
aI680
aI612
aI534
aI785
aI787
aI683
aI771
aI716
aI586
aI725
aI575
aI14
aI550
aI551
aI668
aI621
aI603
aI789
aI578
aI155
aI530
aI610
aI58
aI550
aI566
aI766
aI433
aI763
aI602
aI707
aI767
aI634
aI485
aI584
aI756
aI724
aI610
aI590
aI400
aI777
aI610
aI626
aI780
aI720
aI372
aI372
aI531
aI554
aI605
aI750
aI562
aI109
aI164
aI693
aI600
aI693
aI109
aI553
aI775
aI536
aI781
aI693
aI600
aI754
aI79
aI165
aa(lp4
I709
aI796
aI634
aI684
aI923
aI893
aI58
aI482
aI165
aI841
aI164
aI709
aI796
aI259
aI795
aI259
aI537
aI925
aI896
aI259
aI157
aI112
aI491
aI970
aI792
aI939
aI17
aI165
aI620
aI848
aI341
aI179
aI804
aI914
aI357
aI267
aI216
aI165
aI796
aI836
aI592
aI849
aI617
aI560
aI248
aI523
aI549
aI600
aI883
aI637
aI277
aI973
aI827
aI855
aI803
aI796
aI922
aI888
aI549
aI600
aI913
aI443
aI849
aI810
aI619
aI926
aI485
aI637
aI693
aI426
aI714
aI722
aI852
aI826
aI234
aI372
aI528
aI885
aI549
aI600
aI889
aI528
aI769
aI861
aI796
aI549
aI863
aI127
aI709
aI847
aI367
aI876
aI693
aI807
aI58
aI842
aI389
aI874
aI794
aI363
aI778
aI640
aI846
aI298
aI227
aI924
aI796
aI693
aI372
aI841
aI255
aI155
aI234
aI157
aI549
aI885
aI164
aI860
aI841
aI824
aI709
aI796
aI845
aI659
aI801
aI491
aI489
aI625
aI216
aI841
aI404
aI640
aI845
aI841
aI769
aI731
aI628
aI940
aI485
aI628
aI800
aI731
aI850
aI217
aI676
aI707
aI947
aI394
aI842
aI979
aI31
aI900
aI823
aI864
aI839
aI549
aI882
aI216
aI823
aI157
aI114
aI127
aI114
aI818
aI962
aI157
aI428
aI409
aI905
aI218
aI843
aI58
aI808
aI732
aI645
aI92
aI899
aI854
aI841
aI336
aI550
aI940
aI485
aI550
aI800
aI217
aI870
aI394
aI933
aI769
aI164
aI640
aI842
aI686
aI811
aI709
aI796
aI357
aI307
aI95
aI964
aI903
aI590
aI709
aI885
aI722
aI878
aI179
aI958
aI813
aI23
aI855
aI965
aI812
aI841
aI184
aI902
aI839
aI769
aI911
aI693
aI971
aI714
aI90
aI852
aI798
aI916
aI839
aI709
aI885
aI813
aI958
aI856
aI840
aI23
aI608
aI921
aI179
aI650
aI709
aI822
aI146
aI821
aI862
aI363
aI961
aI912
aI971
aI981
aI813
aI824
aI871
aI837
aI839
aI210
aI905
aI841
aI880
aI852
aI882
aI127
aI400
aI891
aI157
aI938
aI377
aI260
aI67
aI181
aI165
aI881
aI179
aI853
aI709
aI796
aI781
aI791
aI886
aI624
aI982
aI367
aI93
aI844
aI962
aI711
aI769
aI853
aI642
aI977
aI793
aI111
aI549
aI692
aI692
aI659
aI879
aI204
aI692
aI806
aI901
aI741
aI853
aI829
aI931
aI619
aI816
aI164
aI157
aI406
aI693
aI882
aI693
aI853
aI829
aI828
aI485
aI920
aI975
aI892
aI589
aI967
aI953
aI549
aI112
aI204
aI31
aI693
aI882
aI922
aI813
aI957
aI25
aI931
aI894
aI858
aI841
aI875
aI852
aI813
aI958
aI744
aI983
aI805
aI650
aI855
aI895
aI501
aI533
aI709
aI796
aI409
aI336
aI781
aI955
aI744
aI608
aI859
aI906
aI666
aI980
aI955
aI866
aI943
aI906
aI634
aI897
aI40
aI919
aI976
aI791
aI817
aI589
aI533
aI833
aI297
aI918
aI204
aI832
aI634
aI709
aI890
aI615
aI146
aI835
aI972
aI561
aI935
aI103
aI915
aI930
aI320
aI218
aI950
aI638
aI534
aI744
aI608
aI934
aI944
aI984
aI825
aI744
aI608
aI917
aI963
aI399
aI407
aI615
aI146
aI906
aI956
aI779
aI932
aI978
aI528
aI937
aI31
aI624
aI17
aI179
aI14
aI966
aI867
aI962
aI711
aI853
aI624
aI887
aI820
aI40
aI942
aI838
aI530
aI589
aI799
aI778
aI127
aI533
aI959
aI545
aI709
aI885
aI80
aI684
aI684
aI952
aI709
aI898
aI769
aI25
aI831
aI802
aI624
aI650
aI936
aI45
aI978
aI815
aI869
aI807
aI394
aI909
aI907
aI840
aI629
aI341
aI341
aI179
aI769
aI709
aI898
aI778
aI853
aI777
aI46
aI910
aI802
aI978
aI127
aI624
aI615
aI548
aI347
aI882
aI80
aI959
aI545
aI277
aI608
aI955
aI46
aI732
aI927
aI341
aI341
aI622
aI336
aI25
aI831
aI802
aI909
aI907
aI840
aI797
aI622
aI693
aI722
aI729
aI372
aI534
aI941
aI959
aI545
aI853
aI777
aI25
aI872
aI946
aI634
aI534
aI164
aI165
aI921
aI179
aI111
aI622
aI769
aI802
aI248
aI258
aI127
aI614
aI865
aI589
aI929
aI873
aI220
aI45
aI769
aI711
aI624
aI955
aI277
aI980
aI608
aI859
aI121
aI666
aI942
aI741
aI866
aI907
aI608
aI485
aI985
aI769
aI624
aI943
aI533
aI897
aI918
aI121
aI146
aI934
aI917
aI825
aI963
aI534
aI970
aI969
aI814
aI741
aI948
aI974
aI954
aI949
aI835
aI643
aI146
aI807
aI394
aI534
aI928
aI884
aI589
aI146
aI851
aI146
aI698
aI17
aI908
aI877
aI962
aI711
aI769
aI853
aI642
aI901
aI692
aI549
aI93
aI959
aI545
aI277
aI907
aI608
aI960
aI153
aI367
aI127
aI964
aI904
aI868
aI823
aI834
aI972
aI834
aI901
aI904
aI569
aI819
aI634
aI589
aI699
aI528
aI709
aI796
aI255
aI569
aI955
aI649
aI58
aI347
aI859
aI725
aI980
aI857
aI951
aI866
aI922
aI485
aI985
aI367
aI830
aI945
aI943
aI897
aI892
aI919
aI643
aI817
aI31
aI589
aI833
aI31
aI589
aI918
aI832
aI709
aI890
aI634
aI934
aI968
aI969
aI825
aI814
aI589
aI949
aI948
aI835
aI823
aI884
aI915
aI930
aI622
aI959
aI545
aI848
aI809
aI842
aI902
aI79
aI702
aI699
aI79
aI676
aa(lp5
I1118
aI709
aI127
aI560
aI560
aI615
aI716
aI1036
aI659
aI1152
aI1152
aI116
aI493
aI684
aI957
aI1144
aI1115
aI172
aI17
aI674
aI216
aI1113
aI709
aI14
aI686
aI981
aI560
aI1063
aI564
aI674
aI716
aI560
aI307
aI989
aI898
aI564
aI845
aI744
aI608
aI681
aI114
aI1152
aI1079
aI1106
aI898
aI981
aI564
aI988
aI744
aI608
aI681
aI114
aI1152
aI1113
aI1148
aI898
aI253
aI1063
aI564
aI560
aI210
aI638
aI612
aI1029
aI336
aI650
aI711
aI986
aI797
aI777
aI869
aI716
aI564
aI1038
aI1003
aI845
aI732
aI1030
aI808
aI1107
aI1046
aI769
aI943
aI1132
aI543
aI1002
aI216
aI1152
aI1011
aI560
aI898
aI857
aI276
aI1023
aI1023
aI1046
aI1029
aI579
aI659
aI1088
aI999
aI830
aI619
aI659
aI1088
aI899
aI709
aI681
aI1122
aI80
aI699
aI377
aI221
aI1004
aI1081
aI824
aI709
aI693
aI1088
aI74
aI90
aI1149
aI1046
aI560
aI989
aI898
aI307
aI402
aI283
aI659
aI1046
aI1142
aI1113
aI549
aI482
aI769
aI1000
aI592
aI1000
aI248
aI1014
aI743
aI922
aI1123
aI710
aI954
aI1097
aI1014
aI693
aI1097
aI372
aI103
aI157
aI1010
aI426
aI290
aI109
aI283
aI659
aI1046
aI372
aI1049
aI1146
aI40
aI1007
aI372
aI941
aI77
aI1121
aI1001
aI216
aI1057
aI127
aI367
aI534
aI568
aI674
aI620
aI764
aI1037
aI523
aI174
aI898
aI402
aI98
aI1139
aI426
aI237
aI276
aI1023
aI1014
aI1079
aI307
aI999
aI443
aI1084
aI1000
aI589
aI482
aI40
aI769
aI1146
aI77
aI1121
aI216
aI85
aI1054
aI1111
aI842
aI367
aI572
aI523
aI1100
aI693
aI589
aI1034
aI1102
aI791
aI1069
aI1066
aI589
aI1005
aI1102
aI1058
aI1085
aI929
aI1035
aI1046
aI893
aI684
aI861
aI989
aI898
aI336
aI443
aI1120
aI732
aI1106
aI898
aI307
aI112
aI181
aI52
aI1014
aI823
aI157
aI1127
aI769
aI77
aI1121
aI989
aI1019
aI121
aI153
aI1109
aI80
aI336
aI1028
aI1151
aI589
aI1035
aI659
aI1046
aI893
aI245
aI684
aI861
aI1051
aI898
aI714
aI307
aI1098
aI428
aI388
aI659
aI1046
aI997
aI1089
aI676
aI987
aI898
aI1126
aI1061
aI1027
aI155
aI181
aI255
aI596
aI336
aI443
aI650
aI711
aI221
aI534
aI568
aI781
aI769
aI1000
aI52
aI1014
aI732
aI157
aI1010
aI995
aI1014
aI261
aI360
aI1019
aI218
aI1014
aI693
aI634
aI999
aI372
aI1128
aI1147
aI741
aI1014
aI957
aI1048
aI619
aI589
aI1134
aI646
aI1024
aI935
aI1095
aI540
aI769
aI1146
aI898
aI991
aI1014
aI1010
aI404
aI367
aI589
aI1034
aI1121
aI568
aI674
aI929
aI681
aI769
aI1014
aI52
aI701
aI1140
aI693
aI715
aI911
aI962
aI336
aI623
aI250
aI1149
aI585
aI652
aI907
aI608
aI1015
aI964
aI1094
aI534
aI623
aI861
aI962
aI336
aI93
aI659
aI1046
aI743
aI1021
aI1012
aI611
aI121
aI127
aI659
aI1012
aI25
aI964
aI1046
aI1034
aI1012
aI198
aI1091
aI216
aI496
aI372
aI1129
aI1014
aI1082
aI999
aI797
aI777
aI741
aI619
aI589
aI1134
aI646
aI962
aI935
aI1095
aI540
aI623
aI752
aI1014
aI693
aI898
aI589
aI172
aI844
aI659
aI1046
aI1052
aI1021
aI1012
aI615
aI659
aI1012
aI356
aI659
aI1152
aI1016
aI250
aI611
aI402
aI372
aI1020
aI112
aI278
aI619
aI537
aI1046
aI1034
aI1012
aI901
aI692
aI922
aI807
aI198
aI659
aI1012
aI1046
aI307
aI1070
aI1153
aI652
aI569
aI922
aI1092
aI1072
aI709
aI677
aI681
aI955
aI741
aI96
aI732
aI1008
aI840
aI1135
aI278
aI709
aI659
aI859
aI1048
aI1143
aI540
aI659
aI1046
aI902
aI307
aI1140
aI1031
aI58
aI1065
aI733
aI227
aI1014
aI52
aI693
aI941
aI164
aI181
aI1099
aI1089
aI1010
aI372
aI146
aI650
aI688
aI283
aI659
aI859
aI372
aI1009
aI90
aI534
aI715
aI962
aI336
aI623
aI859
aI121
aI1108
aI592
aI372
aI250
aI1150
aI907
aI608
aI1015
aI964
aI619
aI859
aI1078
aI759
aI198
aI853
aI1105
aI1083
aI634
aI659
aI216
aI611
aI898
aI741
aI1014
aI999
aI619
aI589
aI1134
aI646
aI962
aI935
aI1095
aI540
aI589
aI439
aI1150
aI277
aI1015
aI394
aI634
aI659
aI1083
aI898
aI367
aI859
aI402
aI58
aI888
aI198
aI1105
aI1083
aI634
aI372
aI103
aI157
aI216
aI693
aI759
aI1145
aI922
aI659
aI1083
aI1150
aI569
aI590
aI1070
aI663
aI1084
aI922
aI1092
aI681
aI899
aI955
aI96
aI1008
aI840
aI221
aI278
aI1130
aI127
aI882
aI79
aI1046
aI859
aI902
aI589
aI482
aI635
aI853
aI1014
aI769
aI693
aI1089
aI1072
aI619
aI1046
aI859
aI184
aI372
aI103
aI1010
aI534
aI715
aI40
aI372
aI1076
aI623
aI845
aI674
aI882
aI1039
aI534
aI103
aI834
aI372
aI638
aI449
aI619
aI964
aI1055
aI992
aI534
aI964
aI625
aI997
aI406
aI1014
aI1082
aI999
aI619
aI589
aI1134
aI646
aI962
aI935
aI1095
aI769
aI623
aI1014
aI693
aI845
aI797
aI777
aI52
aI882
aI534
aI1077
aI823
aI834
aI221
aI1048
aI619
aI605
aI341
aI1017
aI638
aI964
aI625
aI997
aI210
aI1062
aI1056
aI146
aI744
aI217
aI962
aI711
aI986
aI972
aI769
aI997
aI1102
aI663
aI569
aI1087
aI1092
aI899
aI709
aI709
aI693
aI722
aI636
aI885
aI1135
aI1141
aI165
aI1018
aI619
aI1044
aI297
aI305
aI153
aI164
aI1044
aI1133
aI1149
aI428
aI964
aI619
aI95
aI1114
aI165
aI218
aI549
aI1014
aI769
aI693
aI534
aI533
aI372
aI95
aI681
aI569
aI1044
aI1113
aI589
aI1071
aI709
aI46
aI164
aI1025
aI90
aI103
aI882
aI709
aI173
aI1063
aI92
aI619
aI589
aI797
aI777
aI882
aI1014
aI769
aI693
aI372
aI356
aI882
aI859
aI1046
aI693
aI797
aI777
aI58
aI112
aI98
aI1075
aI372
aI1089
aI693
aI1014
aI98
aI218
aI336
aI709
aI640
aI127
aI882
aI90
aI244
aI372
aI876
aI372
aI1104
aI659
aI859
aI103
aI198
aI394
aI964
aI625
aI990
aI394
aI882
aI711
aI926
aI1110
aI859
aI548
aI1067
aI996
aI592
aI1116
aI619
aI907
aI98
aI589
aI439
aI1014
aI693
aI336
aI623
aI1046
aI372
aI1138
aI882
aI692
aI372
aI939
aI627
aI709
aI941
aI439
aI859
aI372
aI278
aI1046
aI90
aI743
aI146
aI244
aI109
aI367
aI941
aI494
aI706
aI659
aI1046
aI1007
aI394
aI939
aI619
aI181
aI1014
aI693
aI1072
aI1046
aI882
aI1104
aI1119
aI58
aI1000
aI1014
aI769
aI693
aI410
aI994
aI485
aI217
aI797
aI777
aI1062
aI1014
aI693
aI372
aI1033
aI103
aI157
aI1010
aI1101
aI77
aI112
aI1125
aI216
aI1112
aI743
aI592
aI849
aI619
aI589
aI402
aI797
aI777
aI1032
aI237
aI1063
aI1127
aI1119
aI882
aI962
aI711
aI769
aI1146
aI791
aI77
aI1019
aI732
aI58
aI808
aI1068
aI640
aI237
aI85
aI693
aI1050
aI534
aI1136
aI769
aI993
aI248
aI77
aI1050
aI1019
aI204
aI1096
aI693
aI98
aI482
aI821
aI85
aI693
aI1135
aI1053
aI795
aI634
aI1040
aI486
aI1047
aI1138
aI209
aI237
aI1137
aI640
aI1019
aI902
aI589
aI724
aI781
aI769
aI1000
aI1014
aI210
aI52
aI1013
aI1057
aI77
aI1019
aI693
aI495
aI743
aI592
aI849
aI568
aI491
aI970
aI693
aI1035
aI1014
aI1010
aI741
aI592
aI849
aI1043
aI258
aI769
aI548
aI913
aI803
aI922
aI882
aI859
aI1046
aI589
aI781
aI709
aI1086
aI693
aI1042
aI1131
aI58
aI1006
aI710
aI859
aI491
aI1046
aI1054
aI882
aI1056
aI1051
aI898
aI744
aI617
aI849
aI718
aI1090
aI827
aI1064
aI1026
aI1117
aI1059
aI803
aI1060
aI283
aI482
aI1007
aI853
aI1014
aI769
aI811
aI991
aI1127
aI496
aI971
aI998
aI693
aI98
aI625
aI277
aI807
aI999
aI807
aI907
aI561
aI849
aI693
aI1045
aI634
aI803
aI1019
aI307
aI564
aI410
aI283
aI824
aI1124
aI523
aI777
aI769
aI1041
aI709
aI955
aI894
aI1074
aI692
aI859
aI957
aI491
aI1046
aI1054
aI882
aI791
aI1080
aI589
aI709
aI46
aI1019
aI1022
aI1103
aI229
aI882
aI902
aI709
aI415
aI1093
aI824
aI676
aI589
aI836
aI216
aI165
aI1000
aI853
aI1014
aI52
aI1073
aI1017
aI904
aI410
aI994
aI485
aI217
aI711
aI972
aI1014
aI476
aI777
aI204
aI1019
aI882
aI1016
aI58
aI341
aI341
aI179
aa(lp6
I1050
aI1203
aI157
aI1027
aI25
aI336
aI23
aI357
aI1182
aI1224
aI482
aI372
aI372
aI116
aI433
aI523
aI1306
aI1156
aI634
aI1215
aI142
aI357
aI1147
aI428
aI764
aI433
aI116
aI209
aI209
aI1055
aI428
aI98
aI426
aI237
aI216
aI1198
aI1213
aI924
aI1168
aI1114
aI676
aI179
aI95
aI1032
aI1086
aI711
aI693
aI684
aI90
aI534
aI781
aI941
aI523
aI406
aI1229
aI1287
aI1167
aI638
aI534
aI1086
aI693
aI462
aI157
aI577
aI1168
aI1287
aI722
aI1091
aI823
aI1298
aI1190
aI1133
aI485
aI1168
aI922
aI198
aI565
aI1190
aI913
aI431
aI639
aI1232
aI1233
aI589
aI1206
aI770
aI216
aI1187
aI114
aI777
aI769
aI728
aI1166
aI1219
aI641
aI83
aI859
aI693
aI1168
aI1301
aI537
aI112
aI939
aI1159
aI743
aI648
aI667
aI781
aI535
aI1207
aI1286
aI646
aI821
aI1007
aI355
aI426
aI1168
aI627
aI1193
aI1243
aI732
aI693
aI227
aI534
aI1187
aI693
aI1234
aI1072
aI759
aI1190
aI606
aI1237
aI807
aI485
aI90
aI426
aI1251
aI431
aI1246
aI244
aI389
aI1175
aI693
aI1243
aI372
aI103
aI859
aI722
aI103
aI1190
aI372
aI821
aI58
aI440
aI609
aI1072
aI606
aI1234
aI68
aI693
aI1168
aI234
aI90
aI688
aI216
aI372
aI1225
aI398
aI580
aI1190
aI650
aI1243
aI1045
aI922
aI1190
aI140
aI1168
aI823
aI1269
aI216
aI394
aI1205
aI693
aI109
aI534
aI907
aI1185
aI963
aI1226
aI699
aI590
aI1174
aI1168
aI1300
aI741
aI859
aI877
aI251
aI723
aI204
aI1247
aI1265
aI1205
aI1119
aI1071
aI216
aI1270
aI1095
aI874
aI975
aI114
aI1054
aI1055
aI635
aI1173
aI1314
aI1239
aI874
aI1054
aI1158
aI1250
aI684
aI402
aI433
aI534
aI549
aI1147
aI1185
aI963
aI590
aI619
aI589
aI859
aI631
aI1116
aI1168
aI260
aI883
aI277
aI443
aI859
aI1084
aI1178
aI336
aI1311
aI1227
aI297
aI1168
aI528
aI769
aI1045
aI634
aI1215
aI1246
aI1171
aI693
aI1178
aI939
aI1228
aI777
aI1027
aI1007
aI634
aI1139
aI433
aI1160
aI1181
aI831
aI1307
aI650
aI164
aI433
aI1227
aI164
aI58
aI440
aI152
aI1005
aI1139
aI603
aI1267
aI1220
aI864
aI1308
aI941
aI1316
aI1293
aI433
aI1236
aI216
aI98
aI836
aI641
aI216
aI1192
aI548
aI157
aI1257
aI1165
aI1305
aI1315
aI17
aI165
aI1201
aI103
aI1194
aI693
aI1178
aI987
aI372
aI476
aI1227
aI859
aI433
aI157
aI924
aI40
aI620
aI1216
aI693
aI1168
aI1071
aI298
aI68
aI157
aI777
aI402
aI1178
aI857
aI634
aI859
aI714
aI1168
aI1227
aI157
aI681
aI619
aI1119
aI1168
aI475
aI1308
aI1172
aI1313
aI394
aI568
aI1242
aI1227
aI1078
aI402
aI1201
aI1198
aI216
aI565
aI1191
aI13
aI722
aI116
aI1210
aI1007
aI98
aI1264
aI433
aI491
aI1305
aI1315
aI1279
aI98
aI1165
aI1227
aI970
aI1165
aI98
aI714
aI769
aI1121
aI1179
aI1058
aI1191
aI823
aI619
aI711
aI1281
aI1252
aI1245
aI568
aI307
aI1311
aI1227
aI724
aI406
aI1146
aI1253
aI937
aI158
aI528
aI1208
aI769
aI962
aI711
aI172
aI1098
aI1297
aI964
aI1263
aI390
aI957
aI1291
aI1288
aI1317
aI1161
aI942
aI1302
aI98
aI283
aI1278
aI402
aI372
aI1165
aI1227
aI1274
aI1212
aI1292
aI1241
aI716
aI144
aI1105
aI940
aI1165
aI579
aI402
aI1227
aI278
aI1165
aI1305
aI1315
aI684
aI1296
aI1064
aI1168
aI402
aI367
aI25
aI1027
aI1165
aI1199
aI237
aI1157
aI630
aI1139
aI957
aI209
aI1289
aI711
aI823
aI1176
aI485
aI574
aI277
aI676
aI1170
aI1090
aI1162
aI528
aI769
aI1311
aI1275
aI1221
aI237
aI777
aI693
aI1162
aI140
aI1168
aI46
aI181
aI1064
aI109
aI1165
aI1227
aI172
aI1227
aI1064
aI1162
aI823
aI1169
aI825
aI244
aI970
aI1195
aI1227
aI372
aI103
aI1165
aI941
aI853
aI1139
aI157
aI258
aI1249
aI693
aI1168
aI402
aI1276
aI964
aI859
aI103
aI1064
aI1227
aI410
aI372
aI157
aI1164
aI1204
aI488
aI1275
aI1183
aI1254
aI1311
aI641
aI320
aI1033
aI389
aI1180
aI693
aI1162
aI433
aI244
aI216
aI640
aI234
aI1186
aI112
aI595
aI372
aI476
aI103
aI537
aI1183
aI1275
aI1227
aI408
aI234
aI693
aI1168
aI823
aI1162
aI1227
aI964
aI1275
aI1242
aI619
aI807
aI1283
aI1292
aI1215
aI639
aI247
aI164
aI534
aI439
aI52
aI1285
aI759
aI164
aI400
aI1240
aI496
aI1128
aI1299
aI711
aI1045
aI677
aI777
aI52
aI1280
aI1072
aI537
aI707
aI832
aI1280
aI297
aI640
aI1214
aI1271
aI1168
aI46
aI1027
aI341
aI157
aI1201
aI428
aI589
aI1248
aI819
aI1280
aI957
aI688
aI1284
aI693
aI534
aI964
aI832
aI1235
aI693
aI606
aI184
aI1141
aI757
aI853
aI1155
aI1197
aI491
aI372
aI283
aI259
aI1183
aI634
aI79
aI400
aI439
aI693
aI1168
aI1319
aI394
aI138
aI1183
aI1275
aI1154
aI880
aI1280
aI957
aI367
aI1304
aI725
aI485
aI160
aI693
aI1209
aI227
aI247
aI157
aI82
aI1258
aI1237
aI140
aI234
aI204
aI1275
aI764
aI1007
aI1244
aI1146
aI409
aI769
aI1290
aI1275
aI1260
aI1266
aI787
aI1126
aI248
aI1045
aI1290
aI1275
aI1256
aI372
aI304
aI1218
aI225
aI372
aI372
aI1223
aI98
aI655
aI523
aI1168
aI1246
aI729
aI777
aI590
aI1007
aI1244
aI426
aI258
aI1275
aI436
aI1310
aI1203
aI764
aI1290
aI1261
aI98
aI688
aI426
aI893
aI152
aI964
aI1275
aI103
aI832
aI320
aI1201
aI693
aI1280
aI1183
aI832
aI1275
aI267
aI377
aI357
aI650
aI372
aI1032
aI634
aI609
aI922
aI1283
aI394
aI1242
aI1275
aI592
aI1222
aI1168
aI589
aI482
aI1233
aI1217
aI1055
aI402
aI1277
aI285
aI400
aI1087
aI1055
aI9
aI1275
aI1303
aI769
aI157
aI227
aI357
aI864
aI1201
aI210
aI372
aI83
aI1197
aI1183
aI372
aI283
aI745
aI1189
aI127
aI707
aI1088
aI372
aI198
aI1231
aI759
aI722
aI533
aI956
aI404
aI586
aI667
aI406
aI372
aI138
aI1275
aI267
aI103
aI537
aI1183
aI832
aI769
aI677
aI1146
aI248
aI967
aI95
aI1054
aI1044
aI1294
aI667
aI1230
aI95
aI782
aI79
aI400
aI428
aI781
aI1312
aI874
aI1168
aI615
aI367
aI711
aI693
aI90
aI400
aI1086
aI387
aI247
aI667
aI95
aI693
aI659
aI1282
aI157
aI387
aI636
aI198
aI394
aI1184
aI404
aI283
aI795
aI1007
aI127
aI832
aI486
aI823
aI1275
aI1007
aI1275
aI823
aI1227
aI1227
aI823
aI859
aI859
aI823
aI1298
aI1190
aI1133
aI485
aI1190
aI95
aI1032
aI1114
aI676
aI179
aI1273
aI400
aI428
aI1238
aI693
aI387
aI283
aI795
aI1184
aI1264
aI198
aI394
aI1200
aI710
aI706
aI1199
aI90
aI204
aI387
aI433
aI693
aI109
aI1262
aI568
aI372
aI336
aI216
aI549
aI1268
aI896
aI640
aI57
aI832
aI486
aI98
aI640
aI693
aI1168
aI1188
aI777
aI428
aI795
aI1264
aI198
aI394
aI1184
aI109
aI832
aI693
aI387
aI823
aI1196
aI1163
aI646
aI277
aI592
aI83
aI646
aI95
aI400
aI488
aI98
aI389
aI853
aI1202
aI994
aI1168
aI922
aI646
aI589
aI482
aI782
aI68
aI904
aI552
aI876
aI693
aI90
aI1203
aI1198
aI1263
aI407
aI109
aI714
aI336
aI85
aI234
aI247
aI856
aI209
aI1211
aI638
aI389
aI818
aI103
aI157
aI1201
aI880
aI957
aI544
aI1320
aI902
aI619
aI711
aI1281
aI876
aI1007
aI1227
aI711
aI534
aI851
aI646
aI544
aI1246
aI770
aI592
aI849
aI155
aI964
aI970
aI637
aI568
aI869
aI646
aI1055
aI592
aI803
aI868
aI970
aI1035
aI1255
aI549
aI578
aI1177
aI1272
aI564
aI1295
aI501
aI1309
aI637
aI806
aI1111
aI876
aI744
aI634
aI774
aI995
aI575
aI1017
aI904
aI234
aI964
aI619
aI1318
aI1259
aI606
aI646
aI667
aI590
aI45
aI1198
aI1045
aI782
aI68
aI1217
aI609
aI836
aI962
aI1049
aI406
aI1102
aI46
aI648
aI1232
aI157
aI1027
aa(lp7
I203
aI1334
aI1359
aI462
aI577
aI58
aI341
aI179
aI164
aI1144
aI853
aI17
aI165
aI1355
aI95
aI1086
aI154
aI544
aI1063
aI957
aI209
aI198
aI111
aI1359
aI248
aI916
aI540
aI922
aI944
aI957
aI1140
aI724
aI58
aI1391
aI402
aI764
aI204
aI1398
aI1128
aI549
aI482
aI1415
aI980
aI250
aI1328
aI1322
aI544
aI389
aI1322
aI227
aI693
aI1359
aI693
aI980
aI1086
aI534
aI574
aI485
aI853
aI1363
aI98
aI516
aI389
aI74
aI1348
aI1084
aI619
aI98
aI1346
aI1324
aI160
aI693
aI1359
aI534
aI58
aI1391
aI204
aI1398
aI291
aI534
aI25
aI98
aI482
aI980
aI693
aI372
aI639
aI699
aI1113
aI18
aI248
aI1408
aI743
aI542
aI1232
aI389
aI1375
aI1313
aI157
aI829
aI693
aI1359
aI237
aI367
aI671
aI365
aI693
aI1408
aI98
aI216
aI157
aI365
aI216
aI360
aI1378
aI701
aI1144
aI853
aI113
aI250
aI929
aI919
aI1048
aI1102
aI1405
aI1417
aI869
aI807
aI534
aI1400
aI620
aI1198
aI488
aI1007
aI619
aI426
aI79
aI634
aI693
aI1359
aI174
aI534
aI495
aI58
aI1391
aI157
aI674
aI1430
aI764
aI389
aI1200
aI1398
aI1408
aI595
aI402
aI1407
aI1418
aI528
aI1370
aI861
aI1406
aI248
aI1410
aI1321
aI634
aI752
aI1153
aI155
aI1335
aI693
aI1359
aI92
aI389
aI1380
aI808
aI1229
aI693
aI1410
aI409
aI164
aI244
aI537
aI1382
aI184
aI1417
aI835
aI995
aI1424
aI912
aI994
aI485
aI1384
aI389
aI1414
aI1386
aI336
aI1419
aI1358
aI693
aI1359
aI495
aI1086
aI1379
aI372
aI152
aI1033
aI1138
aI485
aI994
aI1394
aI426
aI1055
aI1054
aI975
aI764
aI1007
aI234
aI1353
aI336
aI641
aI495
aI68
aI693
aI1410
aI1325
aI589
aI1357
aI699
aI650
aI1049
aI58
aI1391
aI210
aI165
aI674
aI769
aI589
aI1000
aI533
aI1359
aI980
aI869
aI58
aI716
aI1408
aI1376
aI1420
aI1410
aI209
aI966
aI741
aI1341
aI830
aI673
aI716
aI1360
aI1390
aI589
aI533
aI367
aI592
aI941
aI407
aI400
aI248
aI1377
aI320
aI1326
aI1371
aI80
aI1299
aI693
aI90
aI1102
aI58
aI482
aI941
aI782
aI366
aI693
aI1359
aI152
aI476
aI1351
aI1362
aI864
aI428
aI1412
aI980
aI1268
aI1026
aI77
aI1343
aI169
aI836
aI699
aI724
aI1426
aI1379
aI530
aI782
aI877
aI719
aI14
aI651
aI1332
aI962
aI711
aI769
aI611
aI1102
aI1327
aI1096
aI79
aI1359
aI687
aI1257
aI1337
aI153
aI1368
aI1411
aI693
aI1379
aI941
aI941
aI618
aI1359
aI941
aI735
aI417
aI234
aI157
aI112
aI1096
aI743
aI31
aI389
aI874
aI298
aI1362
aI495
aI693
aI1410
aI693
aI1359
aI1007
aI1403
aI699
aI1075
aI1007
aI1096
aI711
aI293
aI634
aI1428
aI1359
aI1066
aI1404
aI1431
aI1215
aI1422
aI568
aI153
aI980
aI1045
aI634
aI443
aI1408
aI1421
aI980
aI431
aI1410
aI830
aI741
aI634
aI1408
aI485
aI954
aI1347
aI902
aI957
aI1393
aI1359
aI1373
aI980
aI951
aI1408
aI1365
aI1410
aI1153
aI700
aI153
aI769
aI1397
aI93
aI1399
aI1059
aI1252
aI1330
aI1429
aI1096
aI549
aI729
aI901
aI1353
aI164
aI1392
aI1333
aI1366
aI1059
aI634
aI1389
aI619
aI907
aI1339
aI1309
aI1128
aI528
aI741
aI1381
aI1096
aI791
aI357
aI1388
aI178
aI491
aI1189
aI528
aI1364
aI198
aI782
aI1416
aI433
aI1411
aI869
aI634
aI1402
aI1434
aI647
aI980
aI1082
aI634
aI1425
aI548
aI692
aI1408
aI578
aI976
aI1433
aI1369
aI1410
aI1321
aI634
aI1340
aI673
aI1102
aI113
aI544
aI1140
aI528
aI744
aI608
aI988
aI1096
aI248
aI1377
aI782
aI247
aI1374
aI957
aI209
aI58
aI1423
aI1048
aI619
aI216
aI1338
aI568
aI589
aI941
aI534
aI283
aI407
aI146
aI1337
aI643
aI1409
aI962
aI172
aI1336
aI981
aI782
aI1372
aI1352
aI1383
aI1387
aI904
aI1408
aI1331
aI79
aI1432
aI144
aI1336
aI782
aI1408
aI1401
aI1228
aI806
aI1313
aI1395
aI1323
aI729
aI787
aI619
aI1084
aI443
aI692
aI980
aI857
aI1343
aI1215
aI390
aI647
aI1359
aI1176
aI1410
aI1344
aI808
aI1354
aI155
aI1096
aI1084
aI443
aI907
aI1413
aI46
aI1329
aI1356
aI1367
aI1045
aI1102
aI1395
aI1323
aI1313
aI676
aI1349
aI555
aI777
aI1350
aI394
aI820
aI548
aI692
aI1427
aI1215
aI550
aI1361
aI615
aI647
aI1003
aI1396
aI1385
aI741
aI634
aI673
aI1102
aI590
aI1040
aI1096
aI636
aI1345
aI534
aI443
aI1102
aI1398
aI595
aI1351
aI922
aI1342
aI1345
aI244
aI165
aa(lp8
I1178
aI462
aI980
aI80
aI1468
aI1446
aI853
aI1016
aI1459
aI216
aI165
aI1178
aI780
aI121
aI699
aI1102
aI1178
aI693
aI372
aI1097
aI853
aI1468
aI1384
aI681
aI74
aI164
aI780
aI693
aI638
aI523
aI462
aI456
aI79
aI233
aI495
aI400
aI58
aI341
aI179
aI103
aI1324
aI568
aI165
aI98
aI693
aI1178
aI1471
aI485
aI1444
aI1055
aI759
aI233
aI495
aI1346
aI1324
aI1384
aI722
aI711
aI165
aI1449
aI634
aI523
aI1468
aI250
aI611
aI732
aI1178
aI780
aI693
aI216
aI114
aI357
aI729
aI209
aI1384
aI711
aI165
aI40
aI589
aI157
aI227
aI1473
aI79
aI1000
aI46
aI635
aI1086
aI1457
aI410
aI681
aI648
aI693
aI1473
aI372
aI103
aI157
aI1127
aI1086
aI426
aI1039
aI17
aI681
aI1435
aI780
aI945
aI964
aI549
aI363
aI277
aI548
aI932
aI1474
aI95
aI164
aI250
aI611
aI363
aI1470
aI564
aI372
aI336
aI1000
aI1048
aI619
aI90
aI1048
aI907
aI98
aI372
aI638
aI579
aI764
aI1072
aI443
aI372
aI209
aI821
aI363
aI372
aI995
aI372
aI964
aI1055
aI676
aI79
aI980
aI433
aI1428
aI400
aI1447
aI1199
aI1473
aI1084
aI363
aI549
aI482
aI1178
aI780
aI1153
aI1468
aI528
aI1453
aI1072
aI523
aI549
aI112
aI443
aI1086
aI1417
aI1178
aI1464
aI485
aI693
aI1468
aI821
aI363
aI1473
aI154
aI722
aI79
aI400
aI1087
aI1055
aI259
aI491
aI780
aI534
aI781
aI103
aI157
aI890
aI638
aI853
aI1463
aI533
aI676
aI79
aI684
aI911
aI1468
aI714
aI528
aI1370
aI1473
aI769
aI714
aI876
aI693
aI157
aI1258
aI90
aI688
aI1284
aI204
aI485
aI482
aI109
aI984
aI216
aI853
aI1178
aI537
aI1183
aI670
aI693
aI1468
aI372
aI706
aI1086
aI650
aI1473
aI402
aI1228
aI769
aI216
aI674
aI1007
aI1437
aI1440
aI1468
aI46
aI1086
aI1473
aI1457
aI869
aI1466
aI548
aI1445
aI692
aI1473
aI290
aI367
aI157
aI1183
aI670
aI1436
aI1451
aI869
aI443
aI1465
aI1438
aI537
aI1473
aI686
aI80
aI1468
aI853
aI1462
aI1455
aI903
aI677
aI681
aI1473
aI554
aI1442
aI1456
aI1468
aI336
aI1000
aI1452
aI237
aI164
aI1468
aI1458
aI640
aI1106
aI1178
aI853
aI1408
aI922
aI523
aI112
aI1439
aI641
aI609
aI909
aI999
aI715
aI1107
aI1473
aI1476
aI1442
aI210
aI805
aI1352
aI1472
aI336
aI248
aI1408
aI676
aI999
aI121
aI715
aI1107
aI402
aI1072
aI1454
aI1468
aI1452
aI17
aI684
aI1439
aI402
aI1475
aI646
aI1223
aI693
aI433
aI482
aI1452
aI1442
aI277
aI548
aI815
aI1473
aI857
aI716
aI1468
aI1408
aI528
aI769
aI367
aI347
aI216
aI1442
aI650
aI671
aI820
aI930
aI909
aI815
aI725
aI216
aI549
aI1408
aI941
aI320
aI142
aI209
aI1467
aI806
aI634
aI1343
aI1323
aI1442
aI857
aI1448
aI1084
aI619
aI1469
aI716
aI743
aI216
aI1460
aI367
aI1352
aI1473
aI743
aI1399
aI1420
aI80
aI1443
aI1040
aI992
aI336
aI962
aI1450
aI1441
aI1461
aI157
aI227
aI853
aI1468
aa(lp9
I1178
aI980
aI1086
aI922
aI1055
aI1482
aI638
aI992
aI784
aI1502
aI711
aI1521
aI516
aI922
aI850
aI1084
aI1488
aI635
aI448
aI1232
aI52
aI1483
aI693
aI1488
aI227
aI693
aI980
aI1320
aI258
aI491
aI119
aI1483
aI677
aI1533
aI372
aI528
aI283
aI259
aI159
aI589
aI699
aI1533
aI861
aI1162
aI1477
aI1483
aI693
aI980
aI549
aI962
aI1529
aI565
aI169
aI1483
aI1321
aI634
aI1519
aI210
aI367
aI1055
aI941
aI117
aI564
aI1529
aI1323
aI1545
aI277
aI634
aI524
aI1519
aI962
aI711
aI744
aI980
aI1002
aI1421
aI619
aI1493
aI528
aI1058
aI693
aI1483
aI722
aI372
aI336
aI677
aI1477
aI372
aI1529
aI114
aI1545
aI980
aI262
aI1483
aI693
aI157
aI227
aI488
aI164
aI259
aI169
aI119
aI433
aI565
aI1191
aI491
aI693
aI1483
aI722
aI528
aI922
aI1547
aI1477
aI1529
aI77
aI578
aI277
aI153
aI962
aI744
aI980
aI146
aI714
aI922
aI114
aI1477
aI1529
aI262
aI1483
aI640
aI494
aI488
aI164
aI693
aI164
aI638
aI495
aI964
aI836
aI549
aI482
aI1533
aI589
aI634
aI731
aI1232
aI1382
aI1433
aI1113
aI18
aI980
aI693
aI357
aI433
aI964
aI1484
aI400
aI119
aI1483
aI880
aI372
aI1321
aI634
aI815
aI980
aI1082
aI1232
aI744
aI907
aI608
aI1489
aI906
aI769
aI1496
aI1524
aI1511
aI356
aI859
aI1234
aI77
aI1537
aI1541
aI1483
aI941
aI1496
aI204
aI482
aI534
aI1518
aI980
aI277
aI1311
aI80
aI297
aI1543
aI1496
aI722
aI1268
aI1496
aI1532
aI389
aI1268
aI267
aI98
aI1265
aI1205
aI1242
aI1524
aI523
aI980
aI967
aI1506
aI415
aI590
aI1483
aI1539
aI1490
aI1534
aI1526
aI410
aI227
aI980
aI164
aI242
aI244
aI1494
aI1540
aI722
aI1491
aI562
aI1534
aI1481
aI1004
aI1523
aI1498
aI693
aI1485
aI1029
aI98
aI861
aI1483
aI756
aI1501
aI1524
aI1529
aI1499
aI216
aI1537
aI962
aI1487
aI1541
aI1084
aI404
aI1496
aI941
aI711
aI367
aI31
aI248
aI1524
aI1536
aI1537
aI671
aI1504
aI1515
aI1508
aI590
aI1508
aI488
aI184
aI693
aI1483
aI1156
aI634
aI485
aI216
aI859
aI1529
aI962
aI1531
aI1176
aI1496
aI248
aI877
aI1535
aI1538
aI1497
aI1483
aI174
aI410
aI830
aI619
aI1497
aI744
aI634
aI523
aI859
aI485
aI489
aI744
aI855
aI1508
aI590
aI1508
aI488
aI184
aI693
aI1483
aI1496
aI589
aI77
aI859
aI756
aI1501
aI1524
aI1529
aI1499
aI1106
aI1537
aI1541
aI1084
aI1496
aI248
aI590
aI1508
aI1483
aI119
aI1508
aI488
aI184
aI1321
aI485
aI1106
aI859
aI1529
aI1496
aI1084
aI1003
aI1535
aI619
aI830
aI1497
aI744
aI634
aI1106
aI859
aI410
aI1426
aI1508
aI693
aI1508
aI488
aI184
aI693
aI1483
aI1321
aI634
aI1148
aI859
aI957
aI1529
aI1496
aI1548
aI1492
aI404
aI367
aI1055
aI1003
aI1483
aI410
aI1148
aI859
aI218
aI77
aI1507
aI1508
aI590
aI1508
aI488
aI184
aI119
aI1483
aI830
aI619
aI372
aI1318
aI229
aI562
aI1522
aI1102
aI1496
aI489
aI711
aI625
aI1524
aI548
aI534
aI781
aI1486
aI712
aI1480
aI693
aI780
aI1061
aI1027
aI998
aI1541
aI1514
aI859
aI356
aI855
aI593
aI618
aI1512
aI1046
aI336
aI1102
aI899
aI1046
aI428
aI759
aI895
aI634
aI1513
aI1516
aI491
aI1033
aI619
aI1084
aI593
aI1503
aI248
aI1520
aI1046
aI743
aI634
aI1500
aI491
aI1513
aI1483
aI1528
aI1508
aI590
aI1496
aI248
aI1513
aI1117
aI1113
aI1508
aI488
aI184
aI693
aI1483
aI1530
aI722
aI1491
aI562
aI360
aI184
aI619
aI830
aI1496
aI941
aI399
aI1016
aI589
aI643
aI146
aI546
aI218
aI741
aI1495
aI1544
aI838
aI1493
aI1483
aI741
aI1542
aI153
aI590
aI1522
aI1530
aI722
aI1491
aI562
aI1522
aI360
aI857
aI712
aI1103
aI1535
aI913
aI1483
aI1079
aI700
aI153
aI1483
aI164
aI1509
aI1321
aI634
aI590
aI722
aI1491
aI562
aI1522
aI360
aI14
aI1548
aI1478
aI712
aI1003
aI489
aI1525
aI77
aI1483
aI830
aI1066
aI1066
aI1496
aI780
aI1479
aI700
aI1527
aI1252
aI535
aI1505
aI735
aI711
aI897
aI404
aI858
aI1046
aI111
aI650
aI657
aI780
aI693
aI410
aI590
aI638
aI1142
aI722
aI840
aI357
aI1539
aI415
aI372
aI491
aI1483
aI957
aI1517
aI1082
aI1307
aI590
aI722
aI1491
aI562
aI1522
aI360
aI184
aI1466
aI516
aI823
aI780
aI1535
aI590
aI1510
aI1046
aI410
aI394
aI780
aI1003
aI1079
aI1538
aI293
aI593
aI485
aI744
aI855
aI1483
aI830
aI1078
aI781
aI1546
aa(lp10
I853
aI623
aI615
aI542
aI501
aI559
aI1000
aI623
aI79
aI853
aI841
aI164
aI841
aI964
aI1557
aI595
aI165
aI676
aI830
aI487
aI1549
aI756
aI893
aI433
aI1408
aI674
aI116
aI14
aI853
aI1580
aI797
aI777
aI769
aI1074
aI921
aI1607
aI623
aI14
aI671
aI1570
aI142
aI1589
aI962
aI769
aI307
aI1217
aI962
aI902
aI92
aI636
aI336
aI285
aI616
aI769
aI1074
aI1568
aI476
aI1046
aI841
aI198
aI1012
aI1052
aI844
aI623
aI1114
aI921
aI1012
aI1136
aI623
aI127
aI1046
aI164
aI616
aI9
aI1602
aI1595
aI1577
aI285
aI863
aI45
aI530
aI1178
aI1583
aI9
aI1602
aI1561
aI987
aI528
aI848
aI216
aI165
aI589
aI836
aI1000
aI155
aI886
aI1561
aI693
aI90
aI964
aI1055
aI534
aI719
aI841
aI623
aI127
aI40
aI711
aI1564
aI307
aI775
aI1573
aI1326
aI676
aI1587
aI716
aI634
aI786
aI1585
aI1613
aI1604
aI1550
aI1552
aI1595
aI741
aI649
aI634
aI775
aI1561
aI741
aI592
aI1611
aI1488
aI260
aI247
aI1590
aI216
aI114
aI45
aI1574
aI676
aI482
aI367
aI941
aI482
aI534
aI781
aI172
aI1600
aI426
aI1222
aI964
aI775
aI307
aI907
aI583
aI570
aI1578
aI1556
aI548
aI1044
aI1561
aI733
aI367
aI548
aI248
aI815
aI404
aI426
aI741
aI611
aI853
aI897
aI623
aI1592
aI612
aI204
aI1562
aI675
aI1595
aI409
aI1054
aI1604
aI1569
aI1606
aI1591
aI1581
aI1593
aI190
aI1582
aI297
aI73
aI1561
aI204
aI941
aI196
aI1560
aI1595
aI476
aI1559
aI1582
aI111
aI1591
aI917
aI917
aI1549
aI1387
aI904
aI830
aI356
aI684
aI31
aI356
aI684
aI1153
aI1588
aI1571
aI1588
aI1571
aI1588
aI1561
aI142
aI615
aI1570
aI646
aI327
aI1080
aI627
aI1605
aI394
aI1187
aI164
aI775
aI589
aI671
aI559
aI674
aI769
aI1549
aI830
aI815
aI972
aI853
aI841
aI769
aI191
aI1562
aI1566
aI1565
aI904
aI1610
aI1612
aI1117
aI52
aI216
aI114
aI1555
aI320
aI1103
aI1559
aI589
aI619
aI394
aI523
aI1561
aI248
aI1559
aI627
aI142
aI1426
aI615
aI711
aI841
aI769
aI443
aI1604
aI1572
aI1586
aI1092
aI907
aI1567
aI1609
aI1138
aI1603
aI1138
aI1069
aI421
aI1584
aI1553
aI1614
aI619
aI619
aI733
aI1561
aI172
aI1217
aI744
aI774
aI841
aI1229
aI103
aI443
aI862
aI1595
aI1239
aI693
aI636
aI941
aI589
aI482
aI1229
aI1056
aI635
aI1551
aI693
aI372
aI54
aI534
aI443
aI781
aI589
aI1598
aI1146
aI1608
aI1063
aI670
aI341
aI684
aI836
aI31
aI31
aI719
aI1164
aI623
aI1345
aI534
aI1551
aI732
aI248
aI258
aI1595
aI711
aI1594
aI216
aI674
aI172
aI127
aI1597
aI614
aI542
aI277
aI1558
aI1575
aI1594
aI949
aI614
aI589
aI394
aI623
aI407
aI858
aI1576
aI172
aI1595
aI681
aI569
aI957
aI1601
aI1044
aI1294
aI285
aI614
aI1141
aI676
aI165
aI1416
aI1551
aI1554
aI165
aI1435
aI681
aI172
aI127
aI1597
aI614
aI542
aI779
aI1579
aI1133
aI1558
aI1575
aI949
aI614
aI307
aI1128
aI165
aI674
aI962
aI769
aI623
aI836
aI993
aI921
aI1607
aI184
aI54
aI1570
aI172
aI534
aI671
aI611
aI692
aI1561
aI1599
aI267
aI941
aI858
aI692
aI614
aI806
aI901
aI589
aI955
aI1089
aI732
aI341
aI1046
aI1054
aI711
aI769
aI844
aI841
aI741
aI1114
aI921
aI1046
aI1054
aI1114
aI921
aI1012
aI248
aI1561
aI686
aI1153
aI712
aI336
aI1074
aI77
aI647
aI614
aI144
aI394
aI1596
aI367
aI421
aI1046
aI1249
aI341
aI341
aI1559
aI283
aI1595
aI209
aI248
aI841
aI1087
aI216
aI1012
aI389
aI864
aI482
aI692
aI1084
aI830
aI858
aI1012
aI614
aI1595
aI615
aI913
aI1563
aI31
aI1307
aI367
aI127
aI45
aI127
aI836
aI699
aI1000
aI858
aI1046
aI614
aI922
aI853
aI487
aI922
aI1595
aI781
aI848
aI79
aI702
aI699
aI341
aI179
aI157
aI341
aI1583
aI9
aI616
aI489
aI1054
aI853
aI841
aI1012
aI357
aI516
aI433
aa(lp11
I1146
aI1626
aI523
aI853
aI1580
aI979
aI699
aI801
aI1641
aI109
aI835
aI710
aI919
aI976
aI155
aI679
aI1617
aI782
aI394
aI1434
aI1504
aI1641
aI1636
aI216
aI579
aI404
aI1657
aI277
aI805
aI1394
aI1434
aI528
aI1370
aI679
aI1432
aI919
aI1650
aI77
aI1434
aI957
aI693
aI227
aI1624
aI336
aI1432
aI618
aI1200
aI806
aI919
aI520
aI1627
aI489
aI415
aI1118
aI837
aI1369
aI1641
aI693
aI520
aI1149
aI1622
aI853
aI1580
aI1045
aI1636
aI710
aI1414
aI404
aI1652
aI433
aI1413
aI152
aI1581
aI895
aI1631
aI693
aI1434
aI853
aI1580
aI1643
aI1625
aI919
aI1656
aI1103
aI1629
aI922
aI79
aI1090
aI1618
aI555
aI164
aI693
aI1432
aI209
aI119
aI1641
aI1200
aI520
aI415
aI1063
aI699
aI433
aI157
aI1299
aI1615
aI1633
aI1623
aI1647
aI495
aI534
aI619
aI699
aI1646
aI1651
aI893
aI1634
aI595
aI77
aI507
aI307
aI482
aI699
aI528
aI650
aI769
aI549
aI1628
aI1653
aI426
aI1007
aI1434
aI293
aI157
aI1620
aI693
aI372
aI277
aI715
aI1635
aI98
aI836
aI1653
aI1434
aI154
aI1082
aI216
aI803
aI1432
aI1654
aI1638
aI1286
aI671
aI1648
aI1653
aI1049
aI542
aI732
aI637
aI1640
aI1613
aI1126
aI615
aI146
aI1644
aI851
aI1434
aI650
aI957
aI679
aI700
aI77
aI565
aI744
aI1272
aI1432
aI1618
aI1632
aI1045
aI637
aI908
aI711
aI1641
aI1645
aI1138
aI548
aI785
aI1239
aI183
aI1655
aI297
aI1239
aI1450
aI1619
aI1639
aI157
aI1200
aI1642
aI1128
aI1601
aI95
aI741
aI568
aI1628
aI1637
aI68
aI561
aI1630
aI1649
aI1616
aI699
aI1641
aI995
aI953
aI1642
aI74
aI550
aI1649
aI1641
aI56
aI550
aI1621
aa(lp12
I709
aI845
aI127
aI885
aI906
aI845
aI718
aI216
aI93
aI589
aI718
aI692
aI873
aI1438
aI17
aI681
aI800
aI172
aI671
aI1693
aI1111
aI674
aI184
aI1458
aI283
aI181
aI709
aI710
aI88
aI778
aI403
aI1681
aI1660
aI283
aI882
aI1111
aI674
aI216
aI433
aI864
aI780
aI709
aI415
aI1155
aI25
aI1696
aI356
aI165
aI674
aI198
aI415
aI709
aI898
aI528
aI769
aI400
aI1683
aI40
aI1087
aI844
aI677
aI216
aI882
aI277
aI845
aI718
aI743
aI564
aI589
aI1111
aI981
aI258
aI155
aI861
aI404
aI698
aI692
aI844
aI791
aI901
aI709
aI898
aI528
aI744
aI608
aI569
aI681
aI172
aI882
aI1111
aI1680
aI800
aI631
aI1686
aI112
aI181
aI1106
aI1148
aI674
aI709
aI981
aI485
aI994
aI769
aI952
aI507
aI1027
aI1016
aI79
aI245
aI164
aI1701
aI853
aI652
aI958
aI1692
aI1452
aI516
aI861
aI893
aI709
aI923
aI1128
aI1000
aI52
aI853
aI1580
aI640
aI534
aI355
aI426
aI534
aI152
aI693
aI652
aI209
aI433
aI400
aI283
aI882
aI1111
aI684
aI155
aI709
aI693
aI853
aI690
aI1032
aI398
aI964
aI1055
aI970
aI1541
aI216
aI882
aI372
aI278
aI40
aI528
aI625
aI1470
aI907
aI608
aI823
aI1673
aI693
aI528
aI198
aI372
aI54
aI1688
aI372
aI1210
aI991
aI882
aI1303
aI534
aI652
aI732
aI157
aI1010
aI272
aI25
aI1027
aI589
aI709
aI693
aI372
aI1697
aI398
aI400
aI1694
aI507
aI709
aI981
aI537
aI1672
aI1675
aI902
aI40
aI769
aI1214
aI1667
aI844
aI409
aI534
aI250
aI989
aI882
aI899
aI1669
aI1541
aI652
aI913
aI619
aI1041
aI964
aI1055
aI970
aI579
aI869
aI718
aI549
aI957
aI1015
aI1070
aI907
aI608
aI845
aI882
aI732
aI1239
aI1450
aI989
aI693
aI1258
aI155
aI218
aI1684
aI112
aI1216
aI360
aI482
aI545
aI901
aI1663
aI915
aI922
aI537
aI925
aI1124
aI1252
aI1659
aI1388
aI701
aI1111
aI1051
aI693
aI426
aI667
aI212
aI630
aI759
aI1623
aI372
aI1661
aI495
aI1699
aI693
aI989
aI116
aI1126
aI1698
aI341
aI709
aI898
aI583
aI564
aI1551
aI652
aI40
aI902
aI533
aI969
aI906
aI956
aI488
aI954
aI589
aI367
aI652
aI1015
aI1605
aI394
aI1187
aI402
aI671
aI1679
aI989
aI589
aI718
aI1067
aI394
aI718
aI1700
aI1500
aI830
aI901
aI652
aI248
aI534
aI216
aI114
aI989
aI449
aI482
aI209
aI684
aI1216
aI857
aI198
aI1673
aI853
aI1580
aI902
aI991
aI542
aI1668
aI1662
aI1658
aI1051
aI882
aI590
aI1689
aI439
aI393
aI922
aI807
aI1658
aI1100
aI456
aI693
aI989
aI258
aI1202
aI897
aI589
aI617
aI172
aI1300
aI1691
aI716
aI625
aI1190
aI1383
aI552
aI127
aI652
aI714
aI964
aI619
aI1695
aI1066
aI700
aI549
aI1420
aI769
aI1070
aI808
aI716
aI1051
aI885
aI693
aI759
aI698
aI808
aI636
aI181
aI989
aI693
aI622
aI1674
aI876
aI1677
aI769
aI114
aI1691
aI716
aI625
aI543
aI1370
aI1148
aI625
aI1383
aI691
aI652
aI700
aI1420
aI17
aI684
aI1070
aI808
aI710
aI1051
aI1689
aI675
aI612
aI989
aI146
aI693
aI622
aI590
aI876
aI589
aI962
aI769
aI58
aI1678
aI592
aI1678
aI277
aI845
aI549
aI1665
aI845
aI1091
aI622
aI247
aI1466
aI882
aI216
aI882
aI589
aI1665
aI652
aI1589
aI1665
aI1051
aI539
aI1678
aI622
aI1665
aI1051
aI882
aI652
aI693
aI426
aI620
aI539
aI155
aI1007
aI907
aI1702
aI671
aI544
aI1665
aI247
aI606
aI81
aI1253
aI1382
aI693
aI882
aI212
aI1433
aI592
aI1678
aI615
aI537
aI1664
aI623
aI769
aI874
aI1393
aI1687
aI739
aI778
aI589
aI623
aI622
aI1111
aI882
aI652
aI684
aI1688
aI1111
aI882
aI1669
aI1541
aI307
aI1085
aI198
aI1669
aI1302
aI1504
aI1051
aI1689
aI240
aI729
aI989
aI116
aI1676
aI1111
aI962
aI356
aI681
aI800
aI1693
aI173
aI625
aI622
aI539
aI443
aI1678
aI684
aI652
aI1066
aI1665
aI989
aI882
aI1001
aI785
aI922
aI625
aI882
aI1461
aI336
aI677
aI674
aI769
aI1668
aI652
aI1084
aI882
aI869
aI845
aI1689
aI1685
aI769
aI357
aI544
aI732
aI1015
aI718
aI693
aI671
aI1679
aI1682
aI198
aI619
aI537
aI925
aI561
aI800
aI589
aI718
aI681
aI652
aI693
aI258
aI181
aI272
aI941
aI1598
aI1666
aI589
aI1106
aI1148
aI674
aI17
aI112
aI181
aI409
aI882
aI1111
aI684
aI962
aI800
aI1693
aI565
aI826
aI781
aI650
aI1148
aI674
aI652
aI1072
aI619
aI216
aI659
aI1669
aI1695
aI528
aI684
aI769
aI269
aI1660
aI1087
aI709
aI356
aI1420
aI659
aI1669
aI845
aI882
aI615
aI1089
aI548
aI692
aI698
aI244
aI709
aI640
aI845
aI885
aI1111
aI674
aI119
aI845
aI622
aI623
aI805
aI46
aI709
aI181
aI794
aI356
aI1420
aI659
aI1669
aI899
aI709
aI80
aI882
aI640
aI494
aI652
aI693
aI706
aI248
aI1681
aI74
aI268
aI181
aI1671
aI709
aI640
aI652
aI1690
aI780
aI119
aI797
aI372
aI989
aI848
aI165
aI652
aI1670
aI709
aI1093
aa(lp13
I356
aI165
aI1747
aI1763
aI1708
aI1722
aI1760
aI482
aI1744
aI1725
aI1761
aI218
aI1721
aI1218
aI1718
aI1719
aI1482
aI1745
aI1716
aI210
aI704
aI1703
aI1714
aI424
aI1726
aI114
aI1731
aI1738
aI1735
aI1754
aI794
aI1748
aI391
aI210
aI1713
aI1716
aI1703
aI1074
aI1106
aI778
aI216
aI433
aI1746
aI1732
aI1729
aI688
aI495
aI356
aI165
aI56
aI1730
aI1751
aI1511
aI1755
aI1764
aI1764
aI1749
aI1720
aI1761
aI85
aI293
aI1724
aI1707
aI619
aI1106
aI1753
aI205
aI40
aI1737
aI1764
aI391
aI1717
aI215
aI1736
aI1727
aI1729
aI255
aI244
aI1257
aI1749
aI1590
aI1762
aI1740
aI1758
aI1710
aI320
aI1715
aI1734
aI902
aI1759
aI678
aI95
aI1756
aI421
aI77
aI757
aI1747
aI708
aI433
aI476
aI1620
aI1723
aI1725
aI210
aI941
aI1750
aI1752
aI1709
aI1705
aI1712
aI1733
aI769
aI1257
aI165
aI1706
aI165
aI1753
aI778
aI1736
aI1743
aI1729
aI244
aI1711
aI1757
aI352
aI779
aI1739
aI427
aI1704
aI1764
aI106
aI1728
aI1741
aI1742
aI1704
aI391
aI1713
aa(lp14
I1133
aI1797
aI1804
aI1849
aI1792
aI266
aI711
aI757
aI1819
aI1820
aI1810
aI1728
aI1812
aI74
aI1761
aI372
aI164
aI1807
aI1800
aI74
aI1767
aI1848
aI1835
aI98
aI1776
aI1728
aI140
aI1810
aI1831
aI351
aI1825
aI95
aI1590
aI1801
aI421
aI1845
aI1784
aI1779
aI1821
aI1751
aI1790
aI1847
aI1773
aI1778
aI44
aI409
aI1848
aI1037
aI1798
aI1811
aI174
aI1777
aI1848
aI336
aI1728
aI1788
aI1774
aI1824
aI1833
aI1810
aI476
aI74
aI372
aI389
aI1037
aI1728
aI1787
aI185
aI1798
aI1811
aI372
aI794
aI120
aI534
aI911
aI1738
aI1776
aI1810
aI402
aI320
aI125
aI198
aI555
aI684
aI1844
aI1766
aI677
aI1768
aI1837
aI1728
aI1823
aI1764
aI1827
aI1810
aI1834
aI409
aI1045
aI350
aI177
aI641
aI704
aI1833
aI952
aI879
aI345
aI1728
aI164
aI1826
aI168
aI1777
aI1796
aI1741
aI1822
aI152
aI564
aI164
aI1728
aI372
aI1037
aI856
aI1133
aI1804
aI1849
aI1777
aI1843
aI1818
aI290
aI372
aI164
aI964
aI1837
aI1826
aI1728
aI98
aI1601
aI283
aI1770
aI1826
aI216
aI98
aI1601
aI1781
aI1848
aI1803
aI367
aI433
aI464
aI1833
aI1810
aI125
aI476
aI710
aI1824
aI1813
aI1037
aI1798
aI1811
aI1631
aI684
aI1848
aI1007
aI1841
aI1542
aI1728
aI256
aI1844
aI1793
aI799
aI1850
aI476
aI1802
aI910
aI1007
aI1810
aI1793
aI1728
aI1272
aI164
aI964
aI1848
aI991
aI1793
aI1728
aI1272
aI764
aI1841
aI1848
aI1841
aI1848
aI1765
aI1848
aI1066
aI1741
aI1804
aI1791
aI326
aI1837
aI1728
aI1037
aI476
aI1848
aI1764
aI1841
aI1848
aI1810
aI1728
aI372
aI140
aI1518
aI443
aI1764
aI1809
aI1848
aI636
aI1841
aI1542
aI1728
aI1838
aI1789
aI74
aI1633
aI1789
aI1817
aI1848
aI1138
aI372
aI134
aI464
aI1779
aI1848
aI1836
aI247
aI1037
aI1774
aI1839
aI1777
aI336
aI1806
aI1775
aI1791
aI1741
aI74
aI197
aI1766
aI1810
aI372
aI389
aI1728
aI1037
aI1826
aI1759
aI164
aI367
aI433
aI1728
aI554
aI1777
aI114
aI1791
aI1799
aI389
aI1728
aI1764
aI1765
aI1810
aI1820
aI1037
aI1739
aI1777
aI155
aI336
aI1775
aI409
aI464
aI1804
aI1791
aI1810
aI1841
aI1848
aI114
aI1764
aI1771
aI1806
aI1794
aI1037
aI185
aI1728
aI1799
aI74
aI1601
aI1832
aI1766
aI1851
aI764
aI389
aI1728
aI1764
aI1037
aI1826
aI1820
aI1836
aI684
aI1741
aI164
aI372
aI367
aI433
aI1764
aI554
aI1777
aI1828
aI519
aI106
aI1785
aI1764
aI1741
aI1848
aI476
aI246
aI1782
aI433
aI1833
aI1759
aI74
aI1824
aI56
aI1435
aI165
aI216
aI1824
aI372
aI1814
aI393
aI640
aI1774
aI1839
aI1837
aI1412
aI439
aI1780
aI936
aI1820
aI1810
aI1072
aI1798
aI1820
aI1772
aI1810
aI1837
aI409
aI1840
aI1833
aI1800
aI1798
aI1807
aI426
aI1781
aI1820
aI393
aI769
aI57
aI426
aI393
aI769
aI1728
aI256
aI1764
aI1841
aI1848
aI1766
aI952
aI1833
aI1390
aI1837
aI1805
aI476
aI1830
aI1808
aI326
aI1210
aI941
aI1798
aI35
aI1810
aI221
aI1805
aI476
aI1798
aI1830
aI1808
aI216
aI246
aI1782
aI1795
aI438
aI1833
aI1838
aI81
aI1037
aI1836
aI1848
aI1741
aI794
aI1798
aI1741
aI1836
aI1848
aI794
aI1841
aI1848
aI1786
aI1829
aI1271
aI1794
aI1783
aI1271
aI1798
aI794
aI1798
aI436
aI794
aI35
aI1798
aI409
aI941
aI1798
aI1811
aI1809
aI1777
aI769
aI1728
aI764
aI336
aI215
aI1804
aI1824
aI1846
aI1775
aI1794
aI35
aI106
aI367
aI433
aI495
aI65
aI1774
aI372
aI246
aI1815
aI1816
aI25
aI289
aI1769
aI1777
aI1765
aI1222
aI922
aI1007
aI495
aI367
aI433
aI1728
aI95
aI476
aI1848
aI1848
aI106
aI1824
aI1776
aI1842
aa.